; Function Attrs: mustprogress nofree norecurse nosync nounwind willreturn memory(readwrite, argmem: read, inaccessiblemem: none) uwtable
define hidden void @_ZN4cvc58internal7options14OptionsHandler12setErrStreamERKNSt7__cxx1112basic_stringIcSt11char_traitsIcESaIcEEERKNS0_10ManagedErrE(ptr noundef nonnull readnone align 8 captures(none) dereferenceable(8) %0, ptr noundef nonnull readnone align 8 captures(none) dereferenceable(32) %1, ptr noundef nonnull readonly align 8 captures(none) dereferenceable(64) %2) local_unnamed_addr #4 align 2 {
  %4 = load ptr, ptr getelementptr inbounds nuw (i8, ptr @_ZN4cvc58internal14WarningChannelE, i64 48), align 8, !tbaa !9
  %.not = icmp eq ptr %4, @_ZN4cvc58internal7null_osE
  %.phi.trans.insert = getelementptr inbounds nuw i8, ptr %2, i64 8
  %.pre = load ptr, ptr %.phi.trans.insert, align 8, !tbaa !22
  br i1 %.not, label %._crit_edge, label %5

5:                                                ; preds = %3
  %.not.i.i = icmp eq ptr %.pre, null
  %6 = getelementptr inbounds nuw i8, ptr %2, i64 16
  %7 = load ptr, ptr %6, align 8
  %.0.i.i = select i1 %.not.i.i, ptr %7, ptr %.pre
  store ptr %.0.i.i, ptr getelementptr inbounds nuw (i8, ptr @_ZN4cvc58internal14WarningChannelE, i64 48), align 8, !tbaa !9
  br label %._crit_edge

._crit_edge:                                      ; preds = %3, %5
  %.not.i.i2 = icmp eq ptr %.pre, null
  %8 = getelementptr inbounds nuw i8, ptr %2, i64 16
  %9 = load ptr, ptr %8, align 8
  %.0.i.i3 = select i1 %.not.i.i2, ptr %9, ptr %.pre
  store ptr %.0.i.i3, ptr @_ZN4cvc58internal12TraceChannelE, align 8, !tbaa !31
  ret void
}